; Function Attrs: mustprogress nounwind uwtable
define void @_ZN6icu_778EraRulesD2Ev(ptr noundef nonnull readonly align 8 captures(none) dereferenceable(16) %0) unnamed_addr #1 align 2 personality ptr @__gxx_personality_v0 {
  %2 = load ptr, ptr %0, align 8, !tbaa !3
  invoke void @uprv_free_77(ptr noundef %2)
          to label %_ZN6icu_7711LocalMemoryIiED2Ev.exit unwind label %3

3:                                                ; preds = %1
  %4 = landingpad { ptr, i32 }
          catch ptr null
  %5 = extractvalue { ptr, i32 } %4, 0
  tail call void @__clang_call_terminate(ptr %5) #14
  unreachable

_ZN6icu_7711LocalMemoryIiED2Ev.exit:              ; preds = %1
  ret void
}